; ModuleID = '38/911.c'
source_filename = "38/911.c"
target datalayout = "e-m:e-p270:32:32-p271:32:32-p272:64:64-i64:64-f80:128-n8:16:32:64-S128"
target triple = "x86_64-pc-linux-gnu"

@.str = private unnamed_addr constant [3 x i8] c"%d\00", align 1
@.str.1 = private unnamed_addr constant [4 x i8] c"%lf\00", align 1
@.str.2 = private unnamed_addr constant [7 x i8] c"%.5lf\0A\00", align 1

; Function Attrs: noinline nounwind uwtable
define dso_local i32 @main(i32 %0, i8** %1) #0 {
  %3 = alloca i32, align 4
  %4 = alloca i32, align 4
  %5 = alloca i8**, align 8
  %6 = alloca i32, align 4
  %7 = alloca i32, align 4
  %8 = alloca i32, align 4
  %9 = alloca i32, align 4
  %10 = alloca double, align 8
  %11 = alloca double, align 8
  %12 = alloca double, align 8
  %13 = alloca double, align 8
  %14 = alloca double, align 8
  %15 = alloca double, align 8
  %16 = alloca [100 x double], align 16
  store i32 0, i32* %3, align 4
  store i32 %0, i32* %4, align 4
  store i8** %1, i8*** %5, align 8
  store double 0.000000e+00, double* %11, align 8
  store double 0.000000e+00, double* %13, align 8
  %17 = call i32 (i8*, ...) @__isoc99_scanf(i8* getelementptr inbounds ([3 x i8], [3 x i8]* @.str, i64 0, i64 0), i32* %7)
  store i32 0, i32* %6, align 4
  br label %18

18:                                               ; preds = %77, %2
  %19 = load i32, i32* %6, align 4
  %20 = load i32, i32* %7, align 4
  %21 = icmp slt i32 %19, %20
  br i1 %21, label %22, label %80

22:                                               ; preds = %18
  %23 = call i32 (i8*, ...) @__isoc99_scanf(i8* getelementptr inbounds ([3 x i8], [3 x i8]* @.str, i64 0, i64 0), i32* %8)
  store i32 0, i32* %9, align 4
  br label %24

24:                                               ; preds = %41, %22
  %25 = load i32, i32* %9, align 4
  %26 = load i32, i32* %8, align 4
  %27 = icmp slt i32 %25, %26
  br i1 %27, label %28, label %44

28:                                               ; preds = %24
  %29 = call i32 (i8*, ...) @__isoc99_scanf(i8* getelementptr inbounds ([4 x i8], [4 x i8]* @.str.1, i64 0, i64 0), double* %10)
  %30 = load double, double* %10, align 8
  %31 = load i32, i32* %9, align 4
  %32 = sext i32 %31 to i64
  %33 = getelementptr inbounds [100 x double], [100 x double]* %16, i64 0, i64 %32
  store double %30, double* %33, align 8
  %34 = load double, double* %10, align 8
  %35 = load double, double* %11, align 8
  %36 = fadd double %35, %34
  store double %36, double* %11, align 8
  %37 = load double, double* %11, align 8
  %38 = load i32, i32* %8, align 4
  %39 = sitofp i32 %38 to double
  %40 = fdiv double %37, %39
  store double %40, double* %12, align 8
  br label %41

41:                                               ; preds = %28
  %42 = load i32, i32* %9, align 4
  %43 = add nsw i32 %42, 1
  store i32 %43, i32* %9, align 4
  br label %24

44:                                               ; preds = %24
  store i32 0, i32* %9, align 4
  br label %45

45:                                               ; preds = %65, %44
  %46 = load i32, i32* %9, align 4
  %47 = load i32, i32* %8, align 4
  %48 = icmp slt i32 %46, %47
  br i1 %48, label %49, label %68

49:                                               ; preds = %45
  %50 = load i32, i32* %9, align 4
  %51 = sext i32 %50 to i64
  %52 = getelementptr inbounds [100 x double], [100 x double]* %16, i64 0, i64 %51
  %53 = load double, double* %52, align 8
  %54 = load double, double* %12, align 8
  %55 = fsub double %53, %54
  %56 = load i32, i32* %9, align 4
  %57 = sext i32 %56 to i64
  %58 = getelementptr inbounds [100 x double], [100 x double]* %16, i64 0, i64 %57
  %59 = load double, double* %58, align 8
  %60 = load double, double* %12, align 8
  %61 = fsub double %59, %60
  %62 = fmul double %55, %61
  %63 = load double, double* %13, align 8
  %64 = fadd double %63, %62
  store double %64, double* %13, align 8
  br label %65

65:                                               ; preds = %49
  %66 = load i32, i32* %9, align 4
  %67 = add nsw i32 %66, 1
  store i32 %67, i32* %9, align 4
  br label %45

68:                                               ; preds = %45
  %69 = load double, double* %13, align 8
  %70 = load i32, i32* %8, align 4
  %71 = sitofp i32 %70 to double
  %72 = fdiv double %69, %71
  store double %72, double* %14, align 8
  %73 = load double, double* %14, align 8
  %74 = call double @sqrt(double %73) #3
  store double %74, double* %15, align 8
  %75 = load double, double* %15, align 8
  %76 = call i32 (i8*, ...) @printf(i8* getelementptr inbounds ([7 x i8], [7 x i8]* @.str.2, i64 0, i64 0), double %75)
  store double 0.000000e+00, double* %11, align 8
  store double 0.000000e+00, double* %13, align 8
  store double 0.000000e+00, double* %14, align 8
  store double 0.000000e+00, double* %15, align 8
  br label %77

77:                                               ; preds = %68
  %78 = load i32, i32* %6, align 4
  %79 = add nsw i32 %78, 1
  store i32 %79, i32* %6, align 4
  br label %18

80:                                               ; preds = %18
  ret i32 0
}

declare dso_local i32 @__isoc99_scanf(i8*, ...) #1

; Function Attrs: nounwind
declare dso_local double @sqrt(double) #2

declare dso_local i32 @printf(i8*, ...) #1


!llvm.module.flags = !{!0}
!llvm.ident = !{!1}

!0 = !{i32 1, !"wchar_size", i32 4}
!1 = !{!"clang version 10.0.0-4ubuntu1 "}
